target datalayout = "e-m:e-p270:32:32-p271:32:32-p272:64:64-i64:64-i128:128-f80:128-n8:16:32:64-S128"
target triple = "x86_64-pc-linux-gnu"

; Function Attrs: mustprogress nounwind uwtable
define hidden void @_ZN2cv8ximgproc10intrinsics3madEPfS2_ffi(ptr noundef %0, ptr noundef %1, float noundef %2, float noundef %3, i32 noundef %4) #7 {
  %6 = alloca ptr, align 8
  %7 = alloca ptr, align 8
  %8 = alloca float, align 4
  %9 = alloca float, align 4
  %10 = alloca i32, align 4
  %11 = alloca i32, align 4
  store ptr %0, ptr %6, align 8, !tbaa !68
  store ptr %1, ptr %7, align 8, !tbaa !68
  store float %2, ptr %8, align 4, !tbaa !70
  store float %3, ptr %9, align 4, !tbaa !70
  store i32 %4, ptr %10, align 4, !tbaa !10
  call void @llvm.lifetime.start.p0(i64 4, ptr %11) #3
  store i32 0, ptr %11, align 4, !tbaa !10
  br label %12

12:                                               ; preds = %29, %5
  %13 = load i32, ptr %11, align 4, !tbaa !10
  %14 = load i32, ptr %10, align 4, !tbaa !10
  %15 = icmp slt i32 %13, %14
  br i1 %15, label %16, label %32

16:                                               ; preds = %12
  %17 = load float, ptr %8, align 4, !tbaa !70
  %18 = load ptr, ptr %7, align 8, !tbaa !68
  %19 = load i32, ptr %11, align 4, !tbaa !10
  %20 = sext i32 %19 to i64
  %21 = getelementptr inbounds float, ptr %18, i64 %20
  %22 = load float, ptr %21, align 4, !tbaa !70
  %23 = load float, ptr %9, align 4, !tbaa !70
  %24 = call float @llvm.fmuladd.f32(float %17, float %22, float %23)
  %25 = load ptr, ptr %6, align 8, !tbaa !68
  %26 = load i32, ptr %11, align 4, !tbaa !10
  %27 = sext i32 %26 to i64
  %28 = getelementptr inbounds float, ptr %25, i64 %27
  store float %24, ptr %28, align 4, !tbaa !70
  br label %29

29:                                               ; preds = %16
  %30 = load i32, ptr %11, align 4, !tbaa !10
  %31 = add nsw i32 %30, 1
  store i32 %31, ptr %11, align 4, !tbaa !10
  br label %12, !llvm.loop !75

32:                                               ; preds = %12
  call void @llvm.lifetime.end.p0(i64 4, ptr %11) #3
  ret void
}